target datalayout = "e-m:e-p270:32:32-p271:32:32-p272:64:64-i64:64-i128:128-f80:128-n8:16:32:64-S128"
target triple = "x86_64-pc-linux-gnu"

%struct.opj_jp2 = type { ptr, ptr, ptr, i32, i32, i32, i32, i32, i32, i32, i32, i32, i32, i32, i32, i32, i32, ptr, ptr, i64, i64, i32, i32, i32, %struct.opj_jp2_color, i32, i8, i8 }
%struct.opj_jp2_color = type { ptr, i32, ptr, ptr, i8 }
%struct.opj_jp2_pclr = type { ptr, ptr, ptr, ptr, i16, i8 }

@.str.68 = private unnamed_addr constant [38 x i8] c"Invalid PCLR box. Reports %d entries\0A\00", align 1
@.str.69 = private unnamed_addr constant [45 x i8] c"Invalid PCLR box. Reports 0 palette columns\0A\00", align 1

; Function Attrs: nounwind uwtable
define internal i32 @opj_jp2_read_pclr(ptr noundef %0, ptr noundef %1, i32 noundef %2, ptr noundef %3) #0 {
  %5 = alloca i32, align 4
  %6 = alloca ptr, align 8
  %7 = alloca ptr, align 8
  %8 = alloca i32, align 4
  %9 = alloca ptr, align 8
  %10 = alloca ptr, align 8
  %11 = alloca ptr, align 8
  %12 = alloca ptr, align 8
  %13 = alloca ptr, align 8
  %14 = alloca i16, align 2
  %15 = alloca i16, align 2
  %16 = alloca i16, align 2
  %17 = alloca i16, align 2
  %18 = alloca i32, align 4
  %19 = alloca ptr, align 8
  %20 = alloca i32, align 4
  %21 = alloca i32, align 4
  store ptr %0, ptr %6, align 8, !tbaa !3
  store ptr %1, ptr %7, align 8, !tbaa !106
  store i32 %2, ptr %8, align 4, !tbaa !39
  store ptr %3, ptr %9, align 8, !tbaa !12
  call void @llvm.lifetime.start.p0(i64 8, ptr %10) #5
  call void @llvm.lifetime.start.p0(i64 8, ptr %11) #5
  call void @llvm.lifetime.start.p0(i64 8, ptr %12) #5
  call void @llvm.lifetime.start.p0(i64 8, ptr %13) #5
  call void @llvm.lifetime.start.p0(i64 2, ptr %14) #5
  call void @llvm.lifetime.start.p0(i64 2, ptr %15) #5
  call void @llvm.lifetime.start.p0(i64 2, ptr %16) #5
  call void @llvm.lifetime.start.p0(i64 2, ptr %17) #5
  call void @llvm.lifetime.start.p0(i64 4, ptr %18) #5
  call void @llvm.lifetime.start.p0(i64 8, ptr %19) #5
  %22 = load ptr, ptr %7, align 8, !tbaa !106
  store ptr %22, ptr %19, align 8, !tbaa !106
  %23 = load ptr, ptr %6, align 8, !tbaa !3
  %24 = getelementptr inbounds nuw %struct.opj_jp2, ptr %23, i32 0, i32 24
  %25 = getelementptr inbounds nuw %struct.opj_jp2_color, ptr %24, i32 0, i32 3
  %26 = load ptr, ptr %25, align 8, !tbaa !28
  %27 = icmp ne ptr %26, null
  br i1 %27, label %28, label %29

28:                                               ; preds = %4
  store i32 0, ptr %5, align 4
  store i32 1, ptr %20, align 4
  br label %221

29:                                               ; preds = %4
  %30 = load i32, ptr %8, align 4, !tbaa !39
  %31 = icmp ult i32 %30, 3
  br i1 %31, label %32, label %33

32:                                               ; preds = %29
  store i32 0, ptr %5, align 4
  store i32 1, ptr %20, align 4
  br label %221

33:                                               ; preds = %29
  %34 = load ptr, ptr %7, align 8, !tbaa !106
  call void @opj_read_bytes_LE(ptr noundef %34, ptr noundef %18, i32 noundef 2)
  %35 = load ptr, ptr %7, align 8, !tbaa !106
  %36 = getelementptr inbounds i8, ptr %35, i64 2
  store ptr %36, ptr %7, align 8, !tbaa !106
  %37 = load i32, ptr %18, align 4, !tbaa !39
  %38 = trunc i32 %37 to i16
  store i16 %38, ptr %14, align 2, !tbaa !118
  %39 = load i16, ptr %14, align 2, !tbaa !118
  %40 = zext i16 %39 to i32
  %41 = icmp eq i32 %40, 0
  br i1 %41, label %46, label %42

42:                                               ; preds = %33
  %43 = load i16, ptr %14, align 2, !tbaa !118
  %44 = zext i16 %43 to i32
  %45 = icmp ugt i32 %44, 1024
  br i1 %45, label %46, label %51

46:                                               ; preds = %42, %33
  %47 = load ptr, ptr %9, align 8, !tbaa !12
  %48 = load i16, ptr %14, align 2, !tbaa !118
  %49 = zext i16 %48 to i32
  %50 = call i32 (ptr, i32, ptr, ...) @opj_event_msg(ptr noundef %47, i32 noundef 1, ptr noundef @.str.68, i32 noundef %49)
  store i32 0, ptr %5, align 4
  store i32 1, ptr %20, align 4
  br label %221

51:                                               ; preds = %42
  %52 = load ptr, ptr %7, align 8, !tbaa !106
  call void @opj_read_bytes_LE(ptr noundef %52, ptr noundef %18, i32 noundef 1)
  %53 = load ptr, ptr %7, align 8, !tbaa !106
  %54 = getelementptr inbounds nuw i8, ptr %53, i32 1
  store ptr %54, ptr %7, align 8, !tbaa !106
  %55 = load i32, ptr %18, align 4, !tbaa !39
  %56 = trunc i32 %55 to i16
  store i16 %56, ptr %15, align 2, !tbaa !118
  %57 = load i16, ptr %15, align 2, !tbaa !118
  %58 = zext i16 %57 to i32
  %59 = icmp eq i32 %58, 0
  br i1 %59, label %60, label %63

60:                                               ; preds = %51
  %61 = load ptr, ptr %9, align 8, !tbaa !12
  %62 = call i32 (ptr, i32, ptr, ...) @opj_event_msg(ptr noundef %61, i32 noundef 1, ptr noundef @.str.69)
  store i32 0, ptr %5, align 4
  store i32 1, ptr %20, align 4
  br label %221

63:                                               ; preds = %51
  %64 = load i32, ptr %8, align 4, !tbaa !39
  %65 = load i16, ptr %15, align 2, !tbaa !118
  %66 = zext i16 %65 to i32
  %67 = add i32 3, %66
  %68 = icmp ult i32 %64, %67
  br i1 %68, label %69, label %70

69:                                               ; preds = %63
  store i32 0, ptr %5, align 4
  store i32 1, ptr %20, align 4
  br label %221

70:                                               ; preds = %63
  %71 = load i16, ptr %15, align 2, !tbaa !118
  %72 = zext i16 %71 to i64
  %73 = mul i64 4, %72
  %74 = load i16, ptr %14, align 2, !tbaa !118
  %75 = zext i16 %74 to i64
  %76 = mul i64 %73, %75
  %77 = call ptr @opj_malloc(i64 noundef %76)
  store ptr %77, ptr %13, align 8, !tbaa !105
  %78 = load ptr, ptr %13, align 8, !tbaa !105
  %79 = icmp ne ptr %78, null
  br i1 %79, label %81, label %80

80:                                               ; preds = %70
  store i32 0, ptr %5, align 4
  store i32 1, ptr %20, align 4
  br label %221

81:                                               ; preds = %70
  %82 = load i16, ptr %15, align 2, !tbaa !118
  %83 = zext i16 %82 to i64
  %84 = call ptr @opj_malloc(i64 noundef %83)
  store ptr %84, ptr %11, align 8, !tbaa !106
  %85 = load ptr, ptr %11, align 8, !tbaa !106
  %86 = icmp ne ptr %85, null
  br i1 %86, label %89, label %87

87:                                               ; preds = %81
  %88 = load ptr, ptr %13, align 8, !tbaa !105
  call void @opj_free(ptr noundef %88)
  store i32 0, ptr %5, align 4
  store i32 1, ptr %20, align 4
  br label %221

89:                                               ; preds = %81
  %90 = load i16, ptr %15, align 2, !tbaa !118
  %91 = zext i16 %90 to i64
  %92 = call ptr @opj_malloc(i64 noundef %91)
  store ptr %92, ptr %12, align 8, !tbaa !106
  %93 = load ptr, ptr %12, align 8, !tbaa !106
  %94 = icmp ne ptr %93, null
  br i1 %94, label %98, label %95

95:                                               ; preds = %89
  %96 = load ptr, ptr %13, align 8, !tbaa !105
  call void @opj_free(ptr noundef %96)
  %97 = load ptr, ptr %11, align 8, !tbaa !106
  call void @opj_free(ptr noundef %97)
  store i32 0, ptr %5, align 4
  store i32 1, ptr %20, align 4
  br label %221

98:                                               ; preds = %89
  %99 = call ptr @opj_malloc(i64 noundef 40)
  store ptr %99, ptr %10, align 8, !tbaa !179
  %100 = load ptr, ptr %10, align 8, !tbaa !179
  %101 = icmp ne ptr %100, null
  br i1 %101, label %106, label %102

102:                                              ; preds = %98
  %103 = load ptr, ptr %13, align 8, !tbaa !105
  call void @opj_free(ptr noundef %103)
  %104 = load ptr, ptr %11, align 8, !tbaa !106
  call void @opj_free(ptr noundef %104)
  %105 = load ptr, ptr %12, align 8, !tbaa !106
  call void @opj_free(ptr noundef %105)
  store i32 0, ptr %5, align 4
  store i32 1, ptr %20, align 4
  br label %221

106:                                              ; preds = %98
  %107 = load ptr, ptr %12, align 8, !tbaa !106
  %108 = load ptr, ptr %10, align 8, !tbaa !179
  %109 = getelementptr inbounds nuw %struct.opj_jp2_pclr, ptr %108, i32 0, i32 1
  store ptr %107, ptr %109, align 8, !tbaa !107
  %110 = load ptr, ptr %11, align 8, !tbaa !106
  %111 = load ptr, ptr %10, align 8, !tbaa !179
  %112 = getelementptr inbounds nuw %struct.opj_jp2_pclr, ptr %111, i32 0, i32 2
  store ptr %110, ptr %112, align 8, !tbaa !108
  %113 = load ptr, ptr %13, align 8, !tbaa !105
  %114 = load ptr, ptr %10, align 8, !tbaa !179
  %115 = getelementptr inbounds nuw %struct.opj_jp2_pclr, ptr %114, i32 0, i32 0
  store ptr %113, ptr %115, align 8, !tbaa !109
  %116 = load i16, ptr %14, align 2, !tbaa !118
  %117 = load ptr, ptr %10, align 8, !tbaa !179
  %118 = getelementptr inbounds nuw %struct.opj_jp2_pclr, ptr %117, i32 0, i32 4
  store i16 %116, ptr %118, align 8, !tbaa !142
  %119 = load i32, ptr %18, align 4, !tbaa !39
  %120 = trunc i32 %119 to i8
  %121 = load ptr, ptr %10, align 8, !tbaa !179
  %122 = getelementptr inbounds nuw %struct.opj_jp2_pclr, ptr %121, i32 0, i32 5
  store i8 %120, ptr %122, align 2, !tbaa !120
  %123 = load ptr, ptr %10, align 8, !tbaa !179
  %124 = getelementptr inbounds nuw %struct.opj_jp2_pclr, ptr %123, i32 0, i32 3
  store ptr null, ptr %124, align 8, !tbaa !29
  %125 = load ptr, ptr %10, align 8, !tbaa !179
  %126 = load ptr, ptr %6, align 8, !tbaa !3
  %127 = getelementptr inbounds nuw %struct.opj_jp2, ptr %126, i32 0, i32 24
  %128 = getelementptr inbounds nuw %struct.opj_jp2_color, ptr %127, i32 0, i32 3
  store ptr %125, ptr %128, align 8, !tbaa !28
  store i16 0, ptr %16, align 2, !tbaa !118
  br label %129

129:                                              ; preds = %156, %106
  %130 = load i16, ptr %16, align 2, !tbaa !118
  %131 = zext i16 %130 to i32
  %132 = load i16, ptr %15, align 2, !tbaa !118
  %133 = zext i16 %132 to i32
  %134 = icmp slt i32 %131, %133
  br i1 %134, label %135, label %159

135:                                              ; preds = %129
  %136 = load ptr, ptr %7, align 8, !tbaa !106
  call void @opj_read_bytes_LE(ptr noundef %136, ptr noundef %18, i32 noundef 1)
  %137 = load ptr, ptr %7, align 8, !tbaa !106
  %138 = getelementptr inbounds nuw i8, ptr %137, i32 1
  store ptr %138, ptr %7, align 8, !tbaa !106
  %139 = load i32, ptr %18, align 4, !tbaa !39
  %140 = and i32 %139, 127
  %141 = add i32 %140, 1
  %142 = trunc i32 %141 to i8
  %143 = load ptr, ptr %11, align 8, !tbaa !106
  %144 = load i16, ptr %16, align 2, !tbaa !118
  %145 = zext i16 %144 to i64
  %146 = getelementptr inbounds nuw i8, ptr %143, i64 %145
  store i8 %142, ptr %146, align 1, !tbaa !26
  %147 = load i32, ptr %18, align 4, !tbaa !39
  %148 = and i32 %147, 128
  %149 = icmp ne i32 %148, 0
  %150 = select i1 %149, i32 1, i32 0
  %151 = trunc i32 %150 to i8
  %152 = load ptr, ptr %12, align 8, !tbaa !106
  %153 = load i16, ptr %16, align 2, !tbaa !118
  %154 = zext i16 %153 to i64
  %155 = getelementptr inbounds nuw i8, ptr %152, i64 %154
  store i8 %151, ptr %155, align 1, !tbaa !26
  br label %156

156:                                              ; preds = %135
  %157 = load i16, ptr %16, align 2, !tbaa !118
  %158 = add i16 %157, 1
  store i16 %158, ptr %16, align 2, !tbaa !118
  br label %129, !llvm.loop !180

159:                                              ; preds = %129
  store i16 0, ptr %17, align 2, !tbaa !118
  br label %160

160:                                              ; preds = %217, %159
  %161 = load i16, ptr %17, align 2, !tbaa !118
  %162 = zext i16 %161 to i32
  %163 = load i16, ptr %14, align 2, !tbaa !118
  %164 = zext i16 %163 to i32
  %165 = icmp slt i32 %162, %164
  br i1 %165, label %166, label %220

166:                                              ; preds = %160
  store i16 0, ptr %16, align 2, !tbaa !118
  br label %167

167:                                              ; preds = %213, %166
  %168 = load i16, ptr %16, align 2, !tbaa !118
  %169 = zext i16 %168 to i32
  %170 = load i16, ptr %15, align 2, !tbaa !118
  %171 = zext i16 %170 to i32
  %172 = icmp slt i32 %169, %171
  br i1 %172, label %173, label %216

173:                                              ; preds = %167
  call void @llvm.lifetime.start.p0(i64 4, ptr %21) #5
  %174 = load ptr, ptr %11, align 8, !tbaa !106
  %175 = load i16, ptr %16, align 2, !tbaa !118
  %176 = zext i16 %175 to i64
  %177 = getelementptr inbounds nuw i8, ptr %174, i64 %176
  %178 = load i8, ptr %177, align 1, !tbaa !26
  %179 = zext i8 %178 to i32
  %180 = add nsw i32 %179, 7
  %181 = ashr i32 %180, 3
  store i32 %181, ptr %21, align 4, !tbaa !39
  %182 = load i32, ptr %21, align 4, !tbaa !39
  %183 = zext i32 %182 to i64
  %184 = icmp ugt i64 %183, 4
  br i1 %184, label %185, label %186

185:                                              ; preds = %173
  store i32 4, ptr %21, align 4, !tbaa !39
  br label %186

186:                                              ; preds = %185, %173
  %187 = load i32, ptr %8, align 4, !tbaa !39
  %188 = zext i32 %187 to i64
  %189 = load ptr, ptr %7, align 8, !tbaa !106
  %190 = load ptr, ptr %19, align 8, !tbaa !106
  %191 = ptrtoint ptr %189 to i64
  %192 = ptrtoint ptr %190 to i64
  %193 = sub i64 %191, %192
  %194 = load i32, ptr %21, align 4, !tbaa !39
  %195 = zext i32 %194 to i64
  %196 = add nsw i64 %193, %195
  %197 = icmp slt i64 %188, %196
  br i1 %197, label %198, label %199

198:                                              ; preds = %186
  store i32 0, ptr %5, align 4
  store i32 1, ptr %20, align 4
  br label %210

199:                                              ; preds = %186
  %200 = load ptr, ptr %7, align 8, !tbaa !106
  %201 = load i32, ptr %21, align 4, !tbaa !39
  call void @opj_read_bytes_LE(ptr noundef %200, ptr noundef %18, i32 noundef %201)
  %202 = load i32, ptr %21, align 4, !tbaa !39
  %203 = load ptr, ptr %7, align 8, !tbaa !106
  %204 = zext i32 %202 to i64
  %205 = getelementptr inbounds nuw i8, ptr %203, i64 %204
  store ptr %205, ptr %7, align 8, !tbaa !106
  %206 = load i32, ptr %18, align 4, !tbaa !39
  %207 = load ptr, ptr %13, align 8, !tbaa !105
  store i32 %206, ptr %207, align 4, !tbaa !39
  %208 = load ptr, ptr %13, align 8, !tbaa !105
  %209 = getelementptr inbounds nuw i32, ptr %208, i32 1
  store ptr %209, ptr %13, align 8, !tbaa !105
  store i32 0, ptr %20, align 4
  br label %210

210:                                              ; preds = %199, %198
  call void @llvm.lifetime.end.p0(i64 4, ptr %21) #5
  %211 = load i32, ptr %20, align 4
  switch i32 %211, label %221 [
    i32 0, label %212
  ]

212:                                              ; preds = %210
  br label %213

213:                                              ; preds = %212
  %214 = load i16, ptr %16, align 2, !tbaa !118
  %215 = add i16 %214, 1
  store i16 %215, ptr %16, align 2, !tbaa !118
  br label %167, !llvm.loop !181

216:                                              ; preds = %167
  br label %217

217:                                              ; preds = %216
  %218 = load i16, ptr %17, align 2, !tbaa !118
  %219 = add i16 %218, 1
  store i16 %219, ptr %17, align 2, !tbaa !118
  br label %160, !llvm.loop !182

220:                                              ; preds = %160
  store i32 1, ptr %5, align 4
  store i32 1, ptr %20, align 4
  br label %221

221:                                              ; preds = %220, %210, %102, %95, %87, %80, %69, %60, %46, %32, %28
  call void @llvm.lifetime.end.p0(i64 8, ptr %19) #5
  call void @llvm.lifetime.end.p0(i64 4, ptr %18) #5
  call void @llvm.lifetime.end.p0(i64 2, ptr %17) #5
  call void @llvm.lifetime.end.p0(i64 2, ptr %16) #5
  call void @llvm.lifetime.end.p0(i64 2, ptr %15) #5
  call void @llvm.lifetime.end.p0(i64 2, ptr %14) #5
  call void @llvm.lifetime.end.p0(i64 8, ptr %13) #5
  call void @llvm.lifetime.end.p0(i64 8, ptr %12) #5
  call void @llvm.lifetime.end.p0(i64 8, ptr %11) #5
  call void @llvm.lifetime.end.p0(i64 8, ptr %10) #5
  %222 = load i32, ptr %5, align 4
  ret i32 %222
}