; Function Attrs: nounwind uwtable
define internal range(i32 0, 2) i32 @opj_jp2_read_pclr(ptr noundef captures(none) %0, ptr noundef %1, i32 noundef %2, ptr noundef %3) #0 {
  %5 = alloca i32, align 4
  call void @llvm.lifetime.start.p0(i64 4, ptr nonnull %5) #6
  %6 = getelementptr inbounds nuw i8, ptr %0, i64 152
  %7 = load ptr, ptr %6, align 8, !tbaa !51
  %.not = icmp ne ptr %7, null
  %8 = icmp ult i32 %2, 3
  %or.cond96 = or i1 %8, %.not
  br i1 %or.cond96, label %.thread, label %9

9:                                                ; preds = %4
  call void @opj_read_bytes_LE(ptr noundef %1, ptr noundef nonnull %5, i32 noundef 2) #6
  %10 = load i32, ptr %5, align 4, !tbaa !46
  %11 = trunc i32 %10 to i16
  %12 = and i32 %10, 65535
  %13 = add nsw i32 %12, -1025
  %or.cond = icmp ult i32 %13, -1024
  br i1 %or.cond, label %14, label %16

14:                                               ; preds = %9
  %15 = call i32 (ptr, i32, ptr, ...) @opj_event_msg(ptr noundef %3, i32 noundef 1, ptr noundef nonnull @.str.68, i32 noundef %12) #6
  br label %.thread

16:                                               ; preds = %9
  %17 = getelementptr inbounds nuw i8, ptr %1, i64 2
  call void @opj_read_bytes_LE(ptr noundef nonnull %17, ptr noundef nonnull %5, i32 noundef 1) #6
  %18 = getelementptr inbounds nuw i8, ptr %1, i64 3
  %19 = load i32, ptr %5, align 4, !tbaa !46
  %20 = and i32 %19, 65535
  %21 = icmp eq i32 %20, 0
  br i1 %21, label %22, label %24

22:                                               ; preds = %16
  %23 = call i32 (ptr, i32, ptr, ...) @opj_event_msg(ptr noundef %3, i32 noundef 1, ptr noundef nonnull @.str.69) #6
  br label %.thread

24:                                               ; preds = %16
  %25 = add nuw nsw i32 %20, 3
  %26 = icmp ult i32 %2, %25
  br i1 %26, label %.thread, label %27

27:                                               ; preds = %24
  %28 = zext nneg i32 %20 to i64
  %29 = shl nuw nsw i32 %12, 2
  %narrow = mul nuw nsw i32 %29, %20
  %30 = zext nneg i32 %narrow to i64
  %31 = call ptr @opj_malloc(i64 noundef %30) #6
  %.not90 = icmp eq ptr %31, null
  br i1 %.not90, label %.thread, label %32

32:                                               ; preds = %27
  %33 = call ptr @opj_malloc(i64 noundef %28) #6
  %.not91 = icmp eq ptr %33, null
  br i1 %.not91, label %34, label %35

34:                                               ; preds = %32
  call void @opj_free(ptr noundef nonnull %31) #6
  br label %.thread

35:                                               ; preds = %32
  %36 = call ptr @opj_malloc(i64 noundef %28) #6
  %.not92 = icmp eq ptr %36, null
  br i1 %.not92, label %37, label %38

37:                                               ; preds = %35
  call void @opj_free(ptr noundef nonnull %31) #6
  call void @opj_free(ptr noundef nonnull %33) #6
  br label %.thread

38:                                               ; preds = %35
  %39 = call ptr @opj_malloc(i64 noundef 40) #6
  %.not93 = icmp eq ptr %39, null
  br i1 %.not93, label %40, label %41

40:                                               ; preds = %38
  call void @opj_free(ptr noundef nonnull %31) #6
  call void @opj_free(ptr noundef nonnull %33) #6
  call void @opj_free(ptr noundef nonnull %36) #6
  br label %.thread

41:                                               ; preds = %38
  %42 = getelementptr inbounds nuw i8, ptr %39, i64 8
  store ptr %36, ptr %42, align 8, !tbaa !52
  %43 = getelementptr inbounds nuw i8, ptr %39, i64 16
  store ptr %33, ptr %43, align 8, !tbaa !53
  store ptr %31, ptr %39, align 8, !tbaa !54
  %44 = getelementptr inbounds nuw i8, ptr %39, i64 32
  store i16 %11, ptr %44, align 8, !tbaa !65
  %45 = load i32, ptr %5, align 4, !tbaa !46
  %46 = trunc i32 %45 to i8
  %47 = getelementptr inbounds nuw i8, ptr %39, i64 34
  store i8 %46, ptr %47, align 2, !tbaa !33
  %48 = getelementptr inbounds nuw i8, ptr %39, i64 24
  store ptr null, ptr %48, align 8, !tbaa !30
  store ptr %39, ptr %6, align 8, !tbaa !51
  br label %53

.preheader.lr.ph:                                 ; preds = %53
  %49 = zext i32 %2 to i64
  %50 = ptrtoint ptr %1 to i64
  %51 = trunc i32 %10 to i16
  %52 = trunc i32 %19 to i16
  br label %.preheader

53:                                               ; preds = %41, %53
  %indvars.iv = phi i64 [ 0, %41 ], [ %indvars.iv.next, %53 ]
  %.076103 = phi ptr [ %18, %41 ], [ %54, %53 ]
  call void @opj_read_bytes_LE(ptr noundef nonnull %.076103, ptr noundef nonnull %5, i32 noundef 1) #6
  %54 = getelementptr inbounds nuw i8, ptr %.076103, i64 1
  %55 = load i32, ptr %5, align 4, !tbaa !46
  %56 = trunc i32 %55 to i8
  %57 = and i8 %56, 127
  %58 = add nuw i8 %57, 1
  %59 = getelementptr inbounds nuw i8, ptr %33, i64 %indvars.iv
  store i8 %58, ptr %59, align 1, !tbaa !18
  %60 = load i32, ptr %5, align 4, !tbaa !46
  %61 = and i32 %60, 128
  %.not95 = icmp ne i32 %61, 0
  %62 = zext i1 %.not95 to i8
  %63 = getelementptr inbounds nuw i8, ptr %36, i64 %indvars.iv
  store i8 %62, ptr %63, align 1, !tbaa !18
  %indvars.iv.next = add nuw nsw i64 %indvars.iv, 1
  %exitcond.not = icmp eq i64 %indvars.iv.next, %28
  br i1 %exitcond.not, label %.preheader.lr.ph, label %53, !llvm.loop !146

.preheader:                                       ; preds = %.preheader.lr.ph, %81
  %.073110 = phi i16 [ 0, %.preheader.lr.ph ], [ %82, %81 ]
  %.177109 = phi ptr [ %54, %.preheader.lr.ph ], [ %76, %81 ]
  %.080108 = phi ptr [ %31, %.preheader.lr.ph ], [ %78, %81 ]
  br label %64

64:                                               ; preds = %.preheader, %75
  %.175107 = phi i16 [ 0, %.preheader ], [ %79, %75 ]
  %.278106 = phi ptr [ %.177109, %.preheader ], [ %76, %75 ]
  %.181105 = phi ptr [ %.080108, %.preheader ], [ %78, %75 ]
  %65 = zext i16 %.175107 to i64
  %66 = getelementptr inbounds nuw i8, ptr %33, i64 %65
  %67 = load i8, ptr %66, align 1, !tbaa !18
  %68 = zext i8 %67 to i32
  %69 = add nuw nsw i32 %68, 7
  %70 = lshr i32 %69, 3
  %spec.store.select = call i32 @llvm.umin.i32(i32 %70, i32 4)
  %71 = ptrtoint ptr %.278106 to i64
  %72 = sub i64 %71, %50
  %73 = zext nneg i32 %spec.store.select to i64
  %74 = add nsw i64 %72, %73
  %.not94 = icmp sgt i64 %74, %49
  br i1 %.not94, label %.thread, label %75

75:                                               ; preds = %64
  call void @opj_read_bytes_LE(ptr noundef %.278106, ptr noundef nonnull %5, i32 noundef %spec.store.select) #6
  %76 = getelementptr inbounds nuw i8, ptr %.278106, i64 %73
  %77 = load i32, ptr %5, align 4, !tbaa !46
  store i32 %77, ptr %.181105, align 4, !tbaa !46
  %78 = getelementptr inbounds nuw i8, ptr %.181105, i64 4
  %79 = add nuw i16 %.175107, 1
  %80 = icmp ult i16 %79, %52
  br i1 %80, label %64, label %81, !llvm.loop !147

81:                                               ; preds = %75
  %82 = add nuw i16 %.073110, 1
  %83 = icmp ult i16 %82, %51
  br i1 %83, label %.preheader, label %.thread, !llvm.loop !148

.thread:                                          ; preds = %81, %64, %27, %24, %4, %40, %37, %34, %22, %14
  %.072 = phi i32 [ 0, %14 ], [ 0, %22 ], [ 0, %40 ], [ 0, %37 ], [ 0, %34 ], [ 0, %4 ], [ 0, %24 ], [ 0, %27 ], [ 0, %64 ], [ 1, %81 ]
  call void @llvm.lifetime.end.p0(i64 4, ptr nonnull %5) #6
  ret i32 %.072
}